target datalayout = "e-m:e-p270:32:32-p271:32:32-p272:64:64-i64:64-i128:128-f80:128-n8:16:32:64-S128"
target triple = "x86_64-pc-linux-gnu"

%struct.WC_PKCS12 = type { ptr, ptr, ptr, i32, i8 }
%struct.MacData = type { ptr, ptr, i32, i32, i32, i32 }
%struct.Hmac = type { %union.wc_Hashes, [36 x i32], [36 x i32], [16 x i32], ptr, i8, i8 }
%union.wc_Hashes = type { %struct.wc_Sha3 }
%struct.wc_Sha3 = type { [25 x i64], [200 x i8], i8, ptr }

; Function Attrs: inlinehint nounwind uwtable
define internal void @ForceZero(ptr noundef %0, i32 noundef %1) #6 {
  %3 = alloca ptr, align 8
  %4 = alloca i32, align 4
  %5 = alloca ptr, align 8
  %6 = alloca ptr, align 8
  %7 = alloca i32, align 4
  store ptr %0, ptr %3, align 8, !tbaa !3
  store i32 %1, ptr %4, align 4, !tbaa !24
  call void @llvm.lifetime.start.p0(i64 8, ptr %5) #7
  %8 = load ptr, ptr %3, align 8, !tbaa !3
  store ptr %8, ptr %5, align 8, !tbaa !32
  call void @llvm.lifetime.start.p0(i64 8, ptr %6) #7
  call void @llvm.lifetime.start.p0(i64 4, ptr %7) #7
  %9 = load ptr, ptr %5, align 8, !tbaa !32
  %10 = ptrtoint ptr %9 to i64
  %11 = and i64 %10, 7
  %12 = sub i64 8, %11
  %13 = and i64 %12, 7
  %14 = trunc i64 %13 to i32
  store i32 %14, ptr %7, align 4, !tbaa !24
  %15 = load i32, ptr %4, align 4, !tbaa !24
  %16 = load i32, ptr %7, align 4, !tbaa !24
  %17 = icmp ult i32 %15, %16
  br i1 %17, label %18, label %20

18:                                               ; preds = %2
  %19 = load i32, ptr %4, align 4, !tbaa !24
  store i32 %19, ptr %7, align 4, !tbaa !24
  br label %20

20:                                               ; preds = %18, %2
  %21 = load i32, ptr %7, align 4, !tbaa !24
  %22 = load i32, ptr %4, align 4, !tbaa !24
  %23 = sub i32 %22, %21
  store i32 %23, ptr %4, align 4, !tbaa !24
  br label %24

24:                                               ; preds = %28, %20
  %25 = load i32, ptr %7, align 4, !tbaa !24
  %26 = add i32 %25, -1
  store i32 %26, ptr %7, align 4, !tbaa !24
  %27 = icmp ne i32 %25, 0
  br i1 %27, label %28, label %31

28:                                               ; preds = %24
  %29 = load ptr, ptr %5, align 8, !tbaa !32
  %30 = getelementptr inbounds nuw i8, ptr %29, i32 1
  store ptr %30, ptr %5, align 8, !tbaa !32
  store volatile i8 0, ptr %29, align 1, !tbaa !40
  br label %24, !llvm.loop !75

31:                                               ; preds = %24
  %32 = load ptr, ptr %5, align 8, !tbaa !32
  store ptr %32, ptr %6, align 8, !tbaa !76
  br label %33

33:                                               ; preds = %40, %31
  %34 = load i32, ptr %4, align 4, !tbaa !24
  %35 = zext i32 %34 to i64
  %36 = icmp uge i64 %35, 8
  br i1 %36, label %37, label %43

37:                                               ; preds = %33
  %38 = load ptr, ptr %6, align 8, !tbaa !76
  %39 = getelementptr inbounds nuw i64, ptr %38, i32 1
  store ptr %39, ptr %6, align 8, !tbaa !76
  store volatile i64 0, ptr %38, align 8, !tbaa !50
  br label %40

40:                                               ; preds = %37
  %41 = load i32, ptr %4, align 4, !tbaa !24
  %42 = sub i32 %41, 8
  store i32 %42, ptr %4, align 4, !tbaa !24
  br label %33, !llvm.loop !78

43:                                               ; preds = %33
  %44 = load ptr, ptr %6, align 8, !tbaa !76
  store ptr %44, ptr %5, align 8, !tbaa !32
  br label %45

45:                                               ; preds = %49, %43
  %46 = load i32, ptr %4, align 4, !tbaa !24
  %47 = add i32 %46, -1
  store i32 %47, ptr %4, align 4, !tbaa !24
  %48 = icmp ne i32 %46, 0
  br i1 %48, label %49, label %52

49:                                               ; preds = %45
  %50 = load ptr, ptr %5, align 8, !tbaa !32
  %51 = getelementptr inbounds nuw i8, ptr %50, i32 1
  store ptr %51, ptr %5, align 8, !tbaa !32
  store volatile i8 0, ptr %50, align 1, !tbaa !40
  br label %45, !llvm.loop !79

52:                                               ; preds = %45
  call void @llvm.lifetime.end.p0(i64 4, ptr %7) #7
  call void @llvm.lifetime.end.p0(i64 8, ptr %6) #7
  call void @llvm.lifetime.end.p0(i64 8, ptr %5) #7
  ret void
}

; Function Attrs: nounwind uwtable
define internal i32 @wc_PKCS12_create_mac(ptr noundef %0, ptr noundef %1, i32 noundef %2, ptr noundef %3, i32 noundef %4, ptr noundef %5, i32 noundef %6) #0 {
  %8 = alloca i32, align 4
  %9 = alloca ptr, align 8
  %10 = alloca ptr, align 8
  %11 = alloca i32, align 4
  %12 = alloca ptr, align 8
  %13 = alloca i32, align 4
  %14 = alloca ptr, align 8
  %15 = alloca i32, align 4
  %16 = alloca %struct.Hmac, align 16
  %17 = alloca ptr, align 8
  %18 = alloca i32, align 4
  %19 = alloca i32, align 4
  %20 = alloca i32, align 4
  %21 = alloca i32, align 4
  %22 = alloca i32, align 4
  %23 = alloca i32, align 4
  %24 = alloca [256 x i8], align 16
  %25 = alloca [64 x i8], align 16
  %26 = alloca i32, align 4
  store ptr %0, ptr %9, align 8, !tbaa !7
  store ptr %1, ptr %10, align 8, !tbaa !32
  store i32 %2, ptr %11, align 4, !tbaa !24
  store ptr %3, ptr %12, align 8, !tbaa !32
  store i32 %4, ptr %13, align 4, !tbaa !24
  store ptr %5, ptr %14, align 8, !tbaa !32
  store i32 %6, ptr %15, align 4, !tbaa !24
  call void @llvm.lifetime.start.p0(i64 784, ptr %16) #7
  call void @llvm.lifetime.start.p0(i64 8, ptr %17) #7
  call void @llvm.lifetime.start.p0(i64 4, ptr %18) #7
  call void @llvm.lifetime.start.p0(i64 4, ptr %19) #7
  call void @llvm.lifetime.start.p0(i64 4, ptr %20) #7
  call void @llvm.lifetime.start.p0(i64 4, ptr %21) #7
  store i32 0, ptr %21, align 4, !tbaa !24
  call void @llvm.lifetime.start.p0(i64 4, ptr %22) #7
  store i32 3, ptr %22, align 4, !tbaa !24
  call void @llvm.lifetime.start.p0(i64 4, ptr %23) #7
  call void @llvm.lifetime.start.p0(i64 256, ptr %24) #7
  call void @llvm.lifetime.start.p0(i64 64, ptr %25) #7
  %27 = load ptr, ptr %9, align 8, !tbaa !7
  %28 = icmp eq ptr %27, null
  br i1 %28, label %40, label %29

29:                                               ; preds = %7
  %30 = load ptr, ptr %9, align 8, !tbaa !7
  %31 = getelementptr inbounds nuw %struct.WC_PKCS12, ptr %30, i32 0, i32 2
  %32 = load ptr, ptr %31, align 8, !tbaa !15
  %33 = icmp eq ptr %32, null
  br i1 %33, label %40, label %34

34:                                               ; preds = %29
  %35 = load ptr, ptr %10, align 8, !tbaa !32
  %36 = icmp eq ptr %35, null
  br i1 %36, label %40, label %37

37:                                               ; preds = %34
  %38 = load ptr, ptr %14, align 8, !tbaa !32
  %39 = icmp eq ptr %38, null
  br i1 %39, label %40, label %41

40:                                               ; preds = %37, %34, %29, %7
  store i32 -173, ptr %8, align 4
  store i32 1, ptr %26, align 4
  br label %163

41:                                               ; preds = %37
  %42 = load ptr, ptr %9, align 8, !tbaa !7
  %43 = getelementptr inbounds nuw %struct.WC_PKCS12, ptr %42, i32 0, i32 2
  %44 = load ptr, ptr %43, align 8, !tbaa !15
  store ptr %44, ptr %17, align 8, !tbaa !34
  %45 = load i32, ptr %13, align 4, !tbaa !24
  %46 = mul i32 %45, 2
  %47 = add i32 %46, 2
  %48 = icmp ugt i32 %47, 256
  br i1 %48, label %49, label %53

49:                                               ; preds = %41
  br label %50

50:                                               ; preds = %49
  br label %51

51:                                               ; preds = %50
  br label %52

52:                                               ; preds = %51
  store i32 -175, ptr %8, align 4
  store i32 1, ptr %26, align 4
  br label %163

53:                                               ; preds = %41
  store i32 0, ptr %23, align 4, !tbaa !24
  br label %54

54:                                               ; preds = %72, %53
  %55 = load i32, ptr %23, align 4, !tbaa !24
  %56 = load i32, ptr %13, align 4, !tbaa !24
  %57 = icmp ult i32 %55, %56
  br i1 %57, label %58, label %75

58:                                               ; preds = %54
  %59 = load i32, ptr %21, align 4, !tbaa !24
  %60 = add nsw i32 %59, 1
  store i32 %60, ptr %21, align 4, !tbaa !24
  %61 = sext i32 %59 to i64
  %62 = getelementptr inbounds [256 x i8], ptr %24, i64 0, i64 %61
  store i8 0, ptr %62, align 1, !tbaa !40
  %63 = load ptr, ptr %12, align 8, !tbaa !32
  %64 = load i32, ptr %23, align 4, !tbaa !24
  %65 = zext i32 %64 to i64
  %66 = getelementptr inbounds nuw i8, ptr %63, i64 %65
  %67 = load i8, ptr %66, align 1, !tbaa !40
  %68 = load i32, ptr %21, align 4, !tbaa !24
  %69 = add nsw i32 %68, 1
  store i32 %69, ptr %21, align 4, !tbaa !24
  %70 = sext i32 %68 to i64
  %71 = getelementptr inbounds [256 x i8], ptr %24, i64 0, i64 %70
  store i8 %67, ptr %71, align 1, !tbaa !40
  br label %72

72:                                               ; preds = %58
  %73 = load i32, ptr %23, align 4, !tbaa !24
  %74 = add i32 %73, 1
  store i32 %74, ptr %23, align 4, !tbaa !24
  br label %54, !llvm.loop !70

75:                                               ; preds = %54
  %76 = load i32, ptr %21, align 4, !tbaa !24
  %77 = add nsw i32 %76, 1
  store i32 %77, ptr %21, align 4, !tbaa !24
  %78 = sext i32 %76 to i64
  %79 = getelementptr inbounds [256 x i8], ptr %24, i64 0, i64 %78
  store i8 0, ptr %79, align 1, !tbaa !40
  %80 = load i32, ptr %21, align 4, !tbaa !24
  %81 = add nsw i32 %80, 1
  store i32 %81, ptr %21, align 4, !tbaa !24
  %82 = sext i32 %80 to i64
  %83 = getelementptr inbounds [256 x i8], ptr %24, i64 0, i64 %82
  store i8 0, ptr %83, align 1, !tbaa !40
  %84 = load ptr, ptr %17, align 8, !tbaa !34
  %85 = getelementptr inbounds nuw %struct.MacData, ptr %84, i32 0, i32 2
  %86 = load i32, ptr %85, align 8, !tbaa !45
  %87 = call i32 @wc_OidGetHash(i32 noundef %86)
  store i32 %87, ptr %20, align 4, !tbaa !24
  %88 = load i32, ptr %20, align 4, !tbaa !24
  %89 = icmp eq i32 %88, 0
  br i1 %89, label %90, label %95

90:                                               ; preds = %75
  %91 = getelementptr inbounds [256 x i8], ptr %24, i64 0, i64 0
  call void @ForceZero(ptr noundef %91, i32 noundef 256)
  br label %92

92:                                               ; preds = %90
  br label %93

93:                                               ; preds = %92
  br label %94

94:                                               ; preds = %93
  store i32 -173, ptr %8, align 4
  store i32 1, ptr %26, align 4
  br label %163

95:                                               ; preds = %75
  %96 = load i32, ptr %20, align 4, !tbaa !24
  %97 = call i32 @wc_HashGetDigestSize(i32 noundef %96)
  store i32 %97, ptr %19, align 4, !tbaa !24
  %98 = load i32, ptr %19, align 4, !tbaa !24
  %99 = icmp slt i32 %98, 0
  br i1 %99, label %104, label %100

100:                                              ; preds = %95
  %101 = load i32, ptr %15, align 4, !tbaa !24
  %102 = load i32, ptr %19, align 4, !tbaa !24
  %103 = icmp ult i32 %101, %102
  br i1 %103, label %104, label %106

104:                                              ; preds = %100, %95
  %105 = getelementptr inbounds [256 x i8], ptr %24, i64 0, i64 0
  call void @ForceZero(ptr noundef %105, i32 noundef 256)
  store i32 -173, ptr %8, align 4
  store i32 1, ptr %26, align 4
  br label %163

106:                                              ; preds = %100
  %107 = getelementptr inbounds [64 x i8], ptr %25, i64 0, i64 0
  %108 = getelementptr inbounds [256 x i8], ptr %24, i64 0, i64 0
  %109 = load i32, ptr %21, align 4, !tbaa !24
  %110 = load ptr, ptr %17, align 8, !tbaa !34
  %111 = getelementptr inbounds nuw %struct.MacData, ptr %110, i32 0, i32 1
  %112 = load ptr, ptr %111, align 8, !tbaa !19
  %113 = load ptr, ptr %17, align 8, !tbaa !34
  %114 = getelementptr inbounds nuw %struct.MacData, ptr %113, i32 0, i32 4
  %115 = load i32, ptr %114, align 8, !tbaa !46
  %116 = load ptr, ptr %17, align 8, !tbaa !34
  %117 = getelementptr inbounds nuw %struct.MacData, ptr %116, i32 0, i32 5
  %118 = load i32, ptr %117, align 4, !tbaa !47
  %119 = load i32, ptr %19, align 4, !tbaa !24
  %120 = load i32, ptr %20, align 4, !tbaa !24
  %121 = load i32, ptr %22, align 4, !tbaa !24
  %122 = load ptr, ptr %9, align 8, !tbaa !7
  %123 = getelementptr inbounds nuw %struct.WC_PKCS12, ptr %122, i32 0, i32 0
  %124 = load ptr, ptr %123, align 8, !tbaa !9
  %125 = call i32 @wc_PKCS12_PBKDF_ex(ptr noundef %107, ptr noundef %108, i32 noundef %109, ptr noundef %112, i32 noundef %115, i32 noundef %118, i32 noundef %119, i32 noundef %120, i32 noundef %121, ptr noundef %124)
  store i32 %125, ptr %18, align 4, !tbaa !24
  %126 = getelementptr inbounds [256 x i8], ptr %24, i64 0, i64 0
  call void @ForceZero(ptr noundef %126, i32 noundef 256)
  %127 = load i32, ptr %18, align 4, !tbaa !24
  %128 = icmp slt i32 %127, 0
  br i1 %128, label %129, label %131

129:                                              ; preds = %106
  %130 = load i32, ptr %18, align 4, !tbaa !24
  store i32 %130, ptr %8, align 4
  store i32 1, ptr %26, align 4
  br label %163

131:                                              ; preds = %106
  %132 = load ptr, ptr %9, align 8, !tbaa !7
  %133 = getelementptr inbounds nuw %struct.WC_PKCS12, ptr %132, i32 0, i32 0
  %134 = load ptr, ptr %133, align 8, !tbaa !9
  %135 = call i32 @wc_HmacInit(ptr noundef %16, ptr noundef %134, i32 noundef -2)
  store i32 %135, ptr %18, align 4, !tbaa !24
  %136 = icmp ne i32 %135, 0
  br i1 %136, label %137, label %139

137:                                              ; preds = %131
  %138 = load i32, ptr %18, align 4, !tbaa !24
  store i32 %138, ptr %8, align 4
  store i32 1, ptr %26, align 4
  br label %163

139:                                              ; preds = %131
  %140 = load i32, ptr %20, align 4, !tbaa !24
  %141 = getelementptr inbounds [64 x i8], ptr %25, i64 0, i64 0
  %142 = load i32, ptr %19, align 4, !tbaa !24
  %143 = call i32 @wc_HmacSetKey(ptr noundef %16, i32 noundef %140, ptr noundef %141, i32 noundef %142)
  store i32 %143, ptr %18, align 4, !tbaa !24
  %144 = load i32, ptr %18, align 4, !tbaa !24
  %145 = icmp eq i32 %144, 0
  br i1 %145, label %146, label %150

146:                                              ; preds = %139
  %147 = load ptr, ptr %10, align 8, !tbaa !32
  %148 = load i32, ptr %11, align 4, !tbaa !24
  %149 = call i32 @wc_HmacUpdate(ptr noundef %16, ptr noundef %147, i32 noundef %148)
  store i32 %149, ptr %18, align 4, !tbaa !24
  br label %150

150:                                              ; preds = %146, %139
  %151 = load i32, ptr %18, align 4, !tbaa !24
  %152 = icmp eq i32 %151, 0
  br i1 %152, label %153, label %156

153:                                              ; preds = %150
  %154 = load ptr, ptr %14, align 8, !tbaa !32
  %155 = call i32 @wc_HmacFinal(ptr noundef %16, ptr noundef %154)
  store i32 %155, ptr %18, align 4, !tbaa !24
  br label %156

156:                                              ; preds = %153, %150
  call void @wc_HmacFree(ptr noundef %16)
  %157 = load i32, ptr %18, align 4, !tbaa !24
  %158 = icmp ne i32 %157, 0
  br i1 %158, label %159, label %161

159:                                              ; preds = %156
  %160 = load i32, ptr %18, align 4, !tbaa !24
  store i32 %160, ptr %8, align 4
  store i32 1, ptr %26, align 4
  br label %163

161:                                              ; preds = %156
  %162 = load i32, ptr %19, align 4, !tbaa !24
  store i32 %162, ptr %8, align 4
  store i32 1, ptr %26, align 4
  br label %163

163:                                              ; preds = %161, %159, %137, %129, %104, %94, %52, %40
  call void @llvm.lifetime.end.p0(i64 64, ptr %25) #7
  call void @llvm.lifetime.end.p0(i64 256, ptr %24) #7
  call void @llvm.lifetime.end.p0(i64 4, ptr %23) #7
  call void @llvm.lifetime.end.p0(i64 4, ptr %22) #7
  call void @llvm.lifetime.end.p0(i64 4, ptr %21) #7
  call void @llvm.lifetime.end.p0(i64 4, ptr %20) #7
  call void @llvm.lifetime.end.p0(i64 4, ptr %19) #7
  call void @llvm.lifetime.end.p0(i64 4, ptr %18) #7
  call void @llvm.lifetime.end.p0(i64 8, ptr %17) #7
  call void @llvm.lifetime.end.p0(i64 784, ptr %16) #7
  %164 = load i32, ptr %8, align 4
  ret i32 %164
}