; Function Attrs: nounwind uwtable
define internal fastcc i32 @wc_PKCS12_create_mac(ptr noundef nonnull readonly captures(none) %0, ptr noundef %1, i32 noundef %2, ptr noundef readonly captures(none) %3, i32 noundef %4, ptr noundef nonnull %5) unnamed_addr #0 {
  %7 = alloca %struct.Hmac, align 16
  %8 = alloca [256 x i8], align 16
  %9 = alloca [64 x i8], align 16
  call void @llvm.lifetime.start.p0(i64 784, ptr nonnull %7) #9
  call void @llvm.lifetime.start.p0(i64 256, ptr nonnull %8) #9
  call void @llvm.lifetime.start.p0(i64 64, ptr nonnull %9) #9
  %10 = getelementptr inbounds nuw i8, ptr %0, i64 16
  %11 = load ptr, ptr %10, align 8, !tbaa !22
  %12 = icmp eq ptr %11, null
  %13 = icmp eq ptr %1, null
  %or.cond = or i1 %13, %12
  br i1 %or.cond, label %ForceZero.exit, label %14

14:                                               ; preds = %6
  %15 = shl i32 %4, 1
  %16 = add i32 %15, -255
  %17 = icmp ult i32 %16, -257
  br i1 %17, label %ForceZero.exit, label %.preheader

.preheader:                                       ; preds = %14
  %.not101 = icmp eq i32 %4, 0
  br i1 %.not101, label %._crit_edge, label %.lr.ph.preheader

.lr.ph.preheader:                                 ; preds = %.preheader
  %wide.trip.count = zext i32 %4 to i64
  br label %.lr.ph

.lr.ph:                                           ; preds = %.lr.ph.preheader, %.lr.ph
  %indvars.iv103 = phi i64 [ 0, %.lr.ph.preheader ], [ %indvars.iv.next104, %.lr.ph ]
  %indvars.iv = phi i64 [ 0, %.lr.ph.preheader ], [ %indvars.iv.next, %.lr.ph ]
  %18 = or disjoint i64 %indvars.iv103, 1
  %19 = getelementptr inbounds nuw [256 x i8], ptr %8, i64 0, i64 %indvars.iv103
  store i8 0, ptr %19, align 2, !tbaa !31
  %20 = getelementptr inbounds nuw i8, ptr %3, i64 %indvars.iv
  %21 = load i8, ptr %20, align 1, !tbaa !31
  %indvars.iv.next104 = add nuw nsw i64 %indvars.iv103, 2
  %22 = getelementptr inbounds nuw [256 x i8], ptr %8, i64 0, i64 %18
  store i8 %21, ptr %22, align 1, !tbaa !31
  %indvars.iv.next = add nuw nsw i64 %indvars.iv, 1
  %exitcond.not = icmp eq i64 %indvars.iv.next, %wide.trip.count
  br i1 %exitcond.not, label %._crit_edge.loopexit, label %.lr.ph, !llvm.loop !58

._crit_edge.loopexit:                             ; preds = %.lr.ph
  %23 = trunc nuw i64 %indvars.iv.next104 to i32
  br label %._crit_edge

._crit_edge:                                      ; preds = %._crit_edge.loopexit, %.preheader
  %.047.lcssa = phi i32 [ 0, %.preheader ], [ %23, %._crit_edge.loopexit ]
  %24 = or disjoint i32 %.047.lcssa, 1
  %25 = zext nneg i32 %.047.lcssa to i64
  %26 = getelementptr inbounds nuw [256 x i8], ptr %8, i64 0, i64 %25
  store i8 0, ptr %26, align 1, !tbaa !31
  %27 = add nuw nsw i32 %.047.lcssa, 2
  %28 = zext nneg i32 %24 to i64
  %29 = getelementptr inbounds nuw [256 x i8], ptr %8, i64 0, i64 %28
  store i8 0, ptr %29, align 1, !tbaa !31
  %30 = getelementptr inbounds nuw i8, ptr %11, i64 16
  %31 = load i32, ptr %30, align 8, !tbaa !36
  %32 = tail call i32 @wc_OidGetHash(i32 noundef %31) #9
  %33 = icmp eq i32 %32, 0
  br i1 %33, label %.lr.ph29.i, label %36

.lr.ph29.i:                                       ; preds = %._crit_edge, %.lr.ph29.i
  %.01528.i = phi ptr [ %34, %.lr.ph29.i ], [ %8, %._crit_edge ]
  %.01827.i = phi i32 [ %35, %.lr.ph29.i ], [ 256, %._crit_edge ]
  %34 = getelementptr inbounds nuw i8, ptr %.01528.i, i64 8
  store volatile i64 0, ptr %.01528.i, align 8, !tbaa !40
  %35 = add nsw i32 %.01827.i, -8
  %.not97 = icmp eq i32 %35, 0
  br i1 %.not97, label %ForceZero.exit, label %.lr.ph29.i, !llvm.loop !59

36:                                               ; preds = %._crit_edge
  %37 = tail call i32 @wc_HashGetDigestSize(i32 noundef %32) #9
  %38 = icmp ugt i32 %37, 64
  br i1 %38, label %.lr.ph29.i67, label %.lr.ph29.preheader.i82

.lr.ph29.i67:                                     ; preds = %36, %.lr.ph29.i67
  %.01528.i68 = phi ptr [ %39, %.lr.ph29.i67 ], [ %8, %36 ]
  %.01827.i69 = phi i32 [ %40, %.lr.ph29.i67 ], [ 256, %36 ]
  %39 = getelementptr inbounds nuw i8, ptr %.01528.i68, i64 8
  store volatile i64 0, ptr %.01528.i68, align 8, !tbaa !40
  %40 = add nsw i32 %.01827.i69, -8
  %.not96 = icmp eq i32 %40, 0
  br i1 %.not96, label %ForceZero.exit, label %.lr.ph29.i67, !llvm.loop !59

.lr.ph29.preheader.i82:                           ; preds = %36
  %41 = getelementptr inbounds nuw i8, ptr %11, i64 8
  %42 = load ptr, ptr %41, align 8, !tbaa !25
  %43 = getelementptr inbounds nuw i8, ptr %11, i64 24
  %44 = load i32, ptr %43, align 8, !tbaa !37
  %45 = getelementptr inbounds nuw i8, ptr %11, i64 28
  %46 = load i32, ptr %45, align 4, !tbaa !38
  %47 = load ptr, ptr %0, align 8, !tbaa !3
  %48 = call i32 @wc_PKCS12_PBKDF_ex(ptr noundef nonnull %9, ptr noundef nonnull %8, i32 noundef %27, ptr noundef %42, i32 noundef %44, i32 noundef %46, i32 noundef %37, i32 noundef %32, i32 noundef 3, ptr noundef %47) #9
  br label %.lr.ph29.i84

.lr.ph29.i84:                                     ; preds = %.lr.ph29.i84, %.lr.ph29.preheader.i82
  %.01528.i85 = phi ptr [ %49, %.lr.ph29.i84 ], [ %8, %.lr.ph29.preheader.i82 ]
  %.01827.i86 = phi i32 [ %50, %.lr.ph29.i84 ], [ 256, %.lr.ph29.preheader.i82 ]
  %49 = getelementptr inbounds nuw i8, ptr %.01528.i85, i64 8
  store volatile i64 0, ptr %.01528.i85, align 8, !tbaa !40
  %50 = add nsw i32 %.01827.i86, -8
  %.not95 = icmp eq i32 %50, 0
  br i1 %.not95, label %ForceZero.exit93, label %.lr.ph29.i84, !llvm.loop !59

ForceZero.exit93:                                 ; preds = %.lr.ph29.i84
  %51 = icmp slt i32 %48, 0
  br i1 %51, label %ForceZero.exit, label %52

52:                                               ; preds = %ForceZero.exit93
  %53 = load ptr, ptr %0, align 8, !tbaa !3
  %54 = call i32 @wc_HmacInit(ptr noundef nonnull %7, ptr noundef %53, i32 noundef -2) #9
  %.not = icmp eq i32 %54, 0
  br i1 %.not, label %55, label %ForceZero.exit

55:                                               ; preds = %52
  %56 = call i32 @wc_HmacSetKey(ptr noundef nonnull %7, i32 noundef %32, ptr noundef nonnull %9, i32 noundef %37) #9
  %57 = icmp eq i32 %56, 0
  br i1 %57, label %58, label %.thread

58:                                               ; preds = %55
  %59 = call i32 @wc_HmacUpdate(ptr noundef nonnull %7, ptr noundef %1, i32 noundef %2) #9
  %60 = icmp eq i32 %59, 0
  br i1 %60, label %61, label %.thread

61:                                               ; preds = %58
  %62 = call i32 @wc_HmacFinal(ptr noundef nonnull %7, ptr noundef nonnull %5) #9
  br label %.thread

.thread:                                          ; preds = %55, %61, %58
  %.1 = phi i32 [ %62, %61 ], [ %59, %58 ], [ %56, %55 ]
  call void @wc_HmacFree(ptr noundef nonnull %7) #9
  %.not58 = icmp eq i32 %.1, 0
  %..1 = select i1 %.not58, i32 %37, i32 %.1
  br label %ForceZero.exit

ForceZero.exit:                                   ; preds = %.lr.ph29.i67, %.lr.ph29.i, %.thread, %52, %ForceZero.exit93, %14, %6
  %.046 = phi i32 [ -173, %6 ], [ -175, %14 ], [ %48, %ForceZero.exit93 ], [ %54, %52 ], [ %..1, %.thread ], [ -173, %.lr.ph29.i ], [ -173, %.lr.ph29.i67 ]
  call void @llvm.lifetime.end.p0(i64 64, ptr nonnull %9) #9
  call void @llvm.lifetime.end.p0(i64 256, ptr nonnull %8) #9
  call void @llvm.lifetime.end.p0(i64 784, ptr nonnull %7) #9
  ret i32 %.046
}